target datalayout = "e-m:e-p270:32:32-p271:32:32-p272:64:64-i64:64-i128:128-f80:128-n8:16:32:64-S128"
target triple = "x86_64-pc-linux-gnu"

%"class.std::vector.0" = type { %"struct.std::_Vector_base.1" }
%"struct.std::_Vector_base.1" = type { %"struct.std::_Vector_base<int, std::allocator<int>>::_Vector_impl" }
%"struct.std::_Vector_base<int, std::allocator<int>>::_Vector_impl" = type { %"struct.std::_Vector_base<int, std::allocator<int>>::_Vector_impl_data" }
%"struct.std::_Vector_base<int, std::allocator<int>>::_Vector_impl_data" = type { ptr, ptr, ptr }
%"class.std::shared_ptr" = type { %"class.std::__shared_ptr" }
%"class.std::__shared_ptr" = type { ptr, %"class.std::__shared_count" }
%"class.std::__shared_count" = type { ptr }
%"class.std::vector.18" = type { %"struct.std::_Vector_base.19" }
%"struct.std::_Vector_base.19" = type { %"struct.std::_Vector_base<open_spiel::State::PlayerAction, std::allocator<open_spiel::State::PlayerAction>>::_Vector_impl" }
%"struct.std::_Vector_base<open_spiel::State::PlayerAction, std::allocator<open_spiel::State::PlayerAction>>::_Vector_impl" = type { %"struct.std::_Vector_base<open_spiel::State::PlayerAction, std::allocator<open_spiel::State::PlayerAction>>::_Vector_impl_data" }
%"struct.std::_Vector_base<open_spiel::State::PlayerAction, std::allocator<open_spiel::State::PlayerAction>>::_Vector_impl_data" = type { ptr, ptr, ptr }
%"class.open_spiel::maedn::MaednState" = type { %"class.open_spiel::State.base", i32, i32, i8, i32, i32, i32, %"class.std::vector.0", %"class.std::vector.0", %"class.std::vector.23" }
%"class.open_spiel::State.base" = type <{ ptr, %"class.std::shared_ptr", i32, i32, %"class.std::vector.18", i32 }>
%"class.std::vector.23" = type { %"struct.std::_Vector_base.24" }
%"struct.std::_Vector_base.24" = type { %"struct.std::_Vector_base<open_spiel::maedn::TurnHistoryInfo, std::allocator<open_spiel::maedn::TurnHistoryInfo>>::_Vector_impl" }
%"struct.std::_Vector_base<open_spiel::maedn::TurnHistoryInfo, std::allocator<open_spiel::maedn::TurnHistoryInfo>>::_Vector_impl" = type { %"struct.std::_Vector_base<open_spiel::maedn::TurnHistoryInfo, std::allocator<open_spiel::maedn::TurnHistoryInfo>>::_Vector_impl_data" }
%"struct.std::_Vector_base<open_spiel::maedn::TurnHistoryInfo, std::allocator<open_spiel::maedn::TurnHistoryInfo>>::_Vector_impl_data" = type { ptr, ptr, ptr }

; Function Attrs: mustprogress uwtable
define void @_ZN10open_spiel5maedn10MaednState8SetStateEiiiiRKSt6vectorIiSaIiEES6_(ptr noundef nonnull align 8 dereferenceable(160) %0, i32 noundef %1, i32 noundef %2, i32 noundef %3, i32 noundef %4, ptr noundef nonnull align 8 dereferenceable(24) %5, ptr noundef nonnull align 8 dereferenceable(24) %6) #5 align 2 {
  %8 = alloca ptr, align 8
  %9 = alloca i32, align 4
  %10 = alloca i32, align 4
  %11 = alloca i32, align 4
  %12 = alloca i32, align 4
  %13 = alloca ptr, align 8
  %14 = alloca ptr, align 8
  store ptr %0, ptr %8, align 8
  store i32 %1, ptr %9, align 4
  store i32 %2, ptr %10, align 4
  store i32 %3, ptr %11, align 4
  store i32 %4, ptr %12, align 4
  store ptr %5, ptr %13, align 8
  store ptr %6, ptr %14, align 8
  %15 = load ptr, ptr %8, align 8
  %16 = load i32, ptr %9, align 4
  %17 = getelementptr inbounds nuw %"class.open_spiel::maedn::MaednState", ptr %15, i32 0, i32 1
  store i32 %16, ptr %17, align 4
  %18 = load i32, ptr %11, align 4
  %19 = getelementptr inbounds nuw %"class.open_spiel::maedn::MaednState", ptr %15, i32 0, i32 2
  store i32 %18, ptr %19, align 8
  %20 = load i32, ptr %10, align 4
  %21 = getelementptr inbounds nuw %"class.open_spiel::maedn::MaednState", ptr %15, i32 0, i32 5
  store i32 %20, ptr %21, align 4
  %22 = load i32, ptr %12, align 4
  %23 = getelementptr inbounds nuw %"class.open_spiel::maedn::MaednState", ptr %15, i32 0, i32 6
  store i32 %22, ptr %23, align 8
  %24 = load ptr, ptr %13, align 8
  %25 = getelementptr inbounds nuw %"class.open_spiel::maedn::MaednState", ptr %15, i32 0, i32 8
  %26 = call noundef nonnull align 8 dereferenceable(24) ptr @_ZNSt6vectorIiSaIiEEaSERKS1_(ptr noundef nonnull align 8 dereferenceable(24) %25, ptr noundef nonnull align 8 dereferenceable(24) %24)
  %27 = load ptr, ptr %14, align 8
  %28 = getelementptr inbounds nuw %"class.open_spiel::maedn::MaednState", ptr %15, i32 0, i32 7
  %29 = call noundef nonnull align 8 dereferenceable(24) ptr @_ZNSt6vectorIiSaIiEEaSERKS1_(ptr noundef nonnull align 8 dereferenceable(24) %28, ptr noundef nonnull align 8 dereferenceable(24) %27)
  ret void
}