; Function Attrs: mustprogress uwtable
define void @_ZN10open_spiel5maedn10MaednState8SetStateEiiiiRKSt6vectorIiSaIiEES6_(ptr noundef nonnull align 8 dereferenceable(160) initializes((60, 68), (76, 84)) %0, i32 noundef %1, i32 noundef %2, i32 noundef %3, i32 noundef %4, ptr noundef nonnull align 8 dereferenceable(24) %5, ptr noundef nonnull align 8 dereferenceable(24) %6) local_unnamed_addr #5 align 2 {
  %8 = getelementptr inbounds nuw i8, ptr %0, i64 60
  store i32 %1, ptr %8, align 4
  %9 = getelementptr inbounds nuw i8, ptr %0, i64 64
  store i32 %3, ptr %9, align 8
  %10 = getelementptr inbounds nuw i8, ptr %0, i64 76
  store i32 %2, ptr %10, align 4
  %11 = getelementptr inbounds nuw i8, ptr %0, i64 80
  store i32 %4, ptr %11, align 8
  %12 = getelementptr inbounds nuw i8, ptr %0, i64 112
  %13 = tail call noundef nonnull align 8 dereferenceable(24) ptr @_ZNSt6vectorIiSaIiEEaSERKS1_(ptr noundef nonnull align 8 dereferenceable(24) %12, ptr noundef nonnull align 8 dereferenceable(24) %5)
  %14 = getelementptr inbounds nuw i8, ptr %0, i64 88
  %15 = tail call noundef nonnull align 8 dereferenceable(24) ptr @_ZNSt6vectorIiSaIiEEaSERKS1_(ptr noundef nonnull align 8 dereferenceable(24) %14, ptr noundef nonnull align 8 dereferenceable(24) %6)
  ret void
}